target datalayout = "e-m:e-p270:32:32-p271:32:32-p272:64:64-i64:64-i128:128-f80:128-n8:16:32:64-S128"
target triple = "x86_64-pc-linux-gnu"

@.str = private unnamed_addr constant [126 x i8] c"generated/home/dtcxzyw/WorkSpace/Projects/compilers/llvm-opt-benchmark/bench/libquic/libquic/boringssl/crypto/x509/asn1_gen.c\00", align 1
@.str.54 = private unnamed_addr constant [6 x i8] c"Char=\00", align 1

; Function Attrs: nounwind uwtable
define internal i32 @parse_tagging(ptr noundef %0, i32 noundef %1, ptr noundef %2, ptr noundef %3) #0 {
  %5 = alloca i32, align 4
  %6 = alloca ptr, align 8
  %7 = alloca i32, align 4
  %8 = alloca ptr, align 8
  %9 = alloca ptr, align 8
  %10 = alloca [2 x i8], align 1
  %11 = alloca i64, align 8
  %12 = alloca ptr, align 8
  %13 = alloca i32, align 4
  store ptr %0, ptr %6, align 8, !tbaa !6
  store i32 %1, ptr %7, align 4, !tbaa !17
  store ptr %2, ptr %8, align 8, !tbaa !63
  store ptr %3, ptr %9, align 8, !tbaa !63
  call void @llvm.lifetime.start.p0(i64 2, ptr %10) #7
  call void @llvm.lifetime.start.p0(i64 8, ptr %11) #7
  call void @llvm.lifetime.start.p0(i64 8, ptr %12) #7
  %14 = load ptr, ptr %6, align 8, !tbaa !6
  %15 = icmp ne ptr %14, null
  br i1 %15, label %17, label %16

16:                                               ; preds = %4
  store i32 0, ptr %5, align 4
  store i32 1, ptr %13, align 4
  br label %81

17:                                               ; preds = %4
  %18 = load ptr, ptr %6, align 8, !tbaa !6
  %19 = call i64 @strtoul(ptr noundef %18, ptr noundef %12, i32 noundef 10) #7
  store i64 %19, ptr %11, align 8, !tbaa !15
  %20 = load ptr, ptr %12, align 8, !tbaa !6
  %21 = icmp ne ptr %20, null
  br i1 %21, label %22, label %35

22:                                               ; preds = %17
  %23 = load ptr, ptr %12, align 8, !tbaa !6
  %24 = load i8, ptr %23, align 1, !tbaa !37
  %25 = sext i8 %24 to i32
  %26 = icmp ne i32 %25, 0
  br i1 %26, label %27, label %35

27:                                               ; preds = %22
  %28 = load ptr, ptr %12, align 8, !tbaa !6
  %29 = load ptr, ptr %6, align 8, !tbaa !6
  %30 = load i32, ptr %7, align 4, !tbaa !17
  %31 = sext i32 %30 to i64
  %32 = getelementptr inbounds i8, ptr %29, i64 %31
  %33 = icmp ugt ptr %28, %32
  br i1 %33, label %34, label %35

34:                                               ; preds = %27
  store i32 0, ptr %5, align 4
  store i32 1, ptr %13, align 4
  br label %81

35:                                               ; preds = %27, %22, %17
  %36 = load i64, ptr %11, align 8, !tbaa !15
  %37 = icmp slt i64 %36, 0
  br i1 %37, label %38, label %39

38:                                               ; preds = %35
  call void @ERR_put_error(i32 noundef 12, i32 noundef 0, i32 noundef 145, ptr noundef @.str, i32 noundef 401)
  store i32 0, ptr %5, align 4
  store i32 1, ptr %13, align 4
  br label %81

39:                                               ; preds = %35
  %40 = load i64, ptr %11, align 8, !tbaa !15
  %41 = trunc i64 %40 to i32
  %42 = load ptr, ptr %8, align 8, !tbaa !63
  store i32 %41, ptr %42, align 4, !tbaa !17
  %43 = load ptr, ptr %12, align 8, !tbaa !6
  %44 = icmp ne ptr %43, null
  br i1 %44, label %45, label %55

45:                                               ; preds = %39
  %46 = load ptr, ptr %12, align 8, !tbaa !6
  %47 = load ptr, ptr %6, align 8, !tbaa !6
  %48 = ptrtoint ptr %46 to i64
  %49 = ptrtoint ptr %47 to i64
  %50 = sub i64 %48, %49
  %51 = load i32, ptr %7, align 4, !tbaa !17
  %52 = sext i32 %51 to i64
  %53 = sub nsw i64 %52, %50
  %54 = trunc i64 %53 to i32
  store i32 %54, ptr %7, align 4, !tbaa !17
  br label %56

55:                                               ; preds = %39
  store i32 0, ptr %7, align 4, !tbaa !17
  br label %56

56:                                               ; preds = %55, %45
  %57 = load i32, ptr %7, align 4, !tbaa !17
  %58 = icmp ne i32 %57, 0
  br i1 %58, label %59, label %78

59:                                               ; preds = %56
  %60 = load ptr, ptr %12, align 8, !tbaa !6
  %61 = load i8, ptr %60, align 1, !tbaa !37
  %62 = sext i8 %61 to i32
  switch i32 %62, label %71 [
    i32 85, label %63
    i32 65, label %65
    i32 80, label %67
    i32 67, label %69
  ]

63:                                               ; preds = %59
  %64 = load ptr, ptr %9, align 8, !tbaa !63
  store i32 0, ptr %64, align 4, !tbaa !17
  br label %77

65:                                               ; preds = %59
  %66 = load ptr, ptr %9, align 8, !tbaa !63
  store i32 64, ptr %66, align 4, !tbaa !17
  br label %77

67:                                               ; preds = %59
  %68 = load ptr, ptr %9, align 8, !tbaa !63
  store i32 192, ptr %68, align 4, !tbaa !17
  br label %77

69:                                               ; preds = %59
  %70 = load ptr, ptr %9, align 8, !tbaa !63
  store i32 128, ptr %70, align 4, !tbaa !17
  br label %77

71:                                               ; preds = %59
  %72 = load ptr, ptr %12, align 8, !tbaa !6
  %73 = load i8, ptr %72, align 1, !tbaa !37
  %74 = getelementptr inbounds [2 x i8], ptr %10, i64 0, i64 0
  store i8 %73, ptr %74, align 1, !tbaa !37
  %75 = getelementptr inbounds [2 x i8], ptr %10, i64 0, i64 1
  store i8 0, ptr %75, align 1, !tbaa !37
  call void @ERR_put_error(i32 noundef 12, i32 noundef 0, i32 noundef 144, ptr noundef @.str, i32 noundef 432)
  %76 = getelementptr inbounds [2 x i8], ptr %10, i64 0, i64 0
  call void (i32, ...) @ERR_add_error_data(i32 noundef 2, ptr noundef @.str.54, ptr noundef %76)
  store i32 0, ptr %5, align 4
  store i32 1, ptr %13, align 4
  br label %81

77:                                               ; preds = %69, %67, %65, %63
  br label %80

78:                                               ; preds = %56
  %79 = load ptr, ptr %9, align 8, !tbaa !63
  store i32 128, ptr %79, align 4, !tbaa !17
  br label %80

80:                                               ; preds = %78, %77
  store i32 1, ptr %5, align 4
  store i32 1, ptr %13, align 4
  br label %81

81:                                               ; preds = %80, %71, %38, %34, %16
  call void @llvm.lifetime.end.p0(i64 8, ptr %12) #7
  call void @llvm.lifetime.end.p0(i64 8, ptr %11) #7
  call void @llvm.lifetime.end.p0(i64 2, ptr %10) #7
  %82 = load i32, ptr %5, align 4
  ret i32 %82
}