; Function Attrs: nounwind uwtable
define internal fastcc range(i32 0, 2) i32 @parse_tagging(ptr noundef %0, i32 noundef %1, ptr noundef writeonly captures(none) %2, ptr noundef writeonly captures(none) %3) unnamed_addr #0 {
  %5 = alloca [2 x i8], align 1
  %6 = alloca ptr, align 8
  call void @llvm.lifetime.start.p0(i64 2, ptr nonnull %5) #9
  call void @llvm.lifetime.start.p0(i64 8, ptr nonnull %6) #9
  %.not = icmp eq ptr %0, null
  br i1 %.not, label %32, label %7

7:                                                ; preds = %4
  %8 = call i64 @strtoul(ptr noundef nonnull %0, ptr noundef nonnull %6, i32 noundef 10) #9
  %9 = load ptr, ptr %6, align 8, !tbaa !6
  %.not20 = icmp eq ptr %9, null
  br i1 %.not20, label %15, label %10

10:                                               ; preds = %7
  %11 = load i8, ptr %9, align 1, !tbaa !25
  %.not21 = icmp ne i8 %11, 0
  %12 = sext i32 %1 to i64
  %13 = getelementptr inbounds i8, ptr %0, i64 %12
  %14 = icmp ugt ptr %9, %13
  %or.cond = select i1 %.not21, i1 %14, i1 false
  br i1 %or.cond, label %32, label %15

15:                                               ; preds = %10, %7
  %16 = icmp slt i64 %8, 0
  br i1 %16, label %17, label %18

17:                                               ; preds = %15
  tail call void @ERR_put_error(i32 noundef 12, i32 noundef 0, i32 noundef 145, ptr noundef nonnull @.str, i32 noundef 401) #9
  br label %32

18:                                               ; preds = %15
  %19 = trunc i64 %8 to i32
  store i32 %19, ptr %2, align 4, !tbaa !49
  %20 = ptrtoint ptr %9 to i64
  %21 = ptrtoint ptr %0 to i64
  %.neg.neg = sub i64 %20, %21
  %.neg24 = trunc i64 %.neg.neg to i32
  %22 = icmp eq i32 %1, %.neg24
  %.015 = or i1 %.not20, %22
  br i1 %.015, label %31, label %23

23:                                               ; preds = %18
  %24 = load i8, ptr %9, align 1, !tbaa !25
  switch i8 %24, label %29 [
    i8 85, label %25
    i8 65, label %26
    i8 80, label %27
    i8 67, label %28
  ]

25:                                               ; preds = %23
  store i32 0, ptr %3, align 4, !tbaa !49
  br label %32

26:                                               ; preds = %23
  store i32 64, ptr %3, align 4, !tbaa !49
  br label %32

27:                                               ; preds = %23
  store i32 192, ptr %3, align 4, !tbaa !49
  br label %32

28:                                               ; preds = %23
  store i32 128, ptr %3, align 4, !tbaa !49
  br label %32

29:                                               ; preds = %23
  store i8 %24, ptr %5, align 1, !tbaa !25
  %30 = getelementptr inbounds nuw i8, ptr %5, i64 1
  store i8 0, ptr %30, align 1, !tbaa !25
  tail call void @ERR_put_error(i32 noundef 12, i32 noundef 0, i32 noundef 144, ptr noundef nonnull @.str, i32 noundef 432) #9
  call void (i32, ...) @ERR_add_error_data(i32 noundef 2, ptr noundef nonnull @.str.54, ptr noundef nonnull %5) #9
  br label %32

31:                                               ; preds = %18
  store i32 128, ptr %3, align 4, !tbaa !49
  br label %32

32:                                               ; preds = %31, %28, %27, %26, %25, %10, %4, %29, %17
  %.0 = phi i32 [ 0, %17 ], [ 0, %29 ], [ 0, %4 ], [ 0, %10 ], [ 1, %25 ], [ 1, %26 ], [ 1, %27 ], [ 1, %28 ], [ 1, %31 ]
  call void @llvm.lifetime.end.p0(i64 8, ptr nonnull %6) #9
  call void @llvm.lifetime.end.p0(i64 2, ptr nonnull %5) #9
  ret i32 %.0
}